target datalayout = "e-m:e-p270:32:32-p271:32:32-p272:64:64-i64:64-i128:128-f80:128-n8:16:32:64-S128"
target triple = "x86_64-pc-linux-gnu"

%struct.ldbState = type { ptr, i32, i32, ptr, ptr, ptr, [64 x i32], i32, i32, i32, ptr, i32, i32, ptr, i64, i32 }
%struct.client = type { i64, i64, ptr, i8, i8, i8, i8, i32, ptr, ptr, ptr, ptr, ptr, i64, i64, i32, ptr, i32, i32, ptr, i64, ptr, ptr, ptr, ptr, ptr, i32, i32, i64, ptr, i64, ptr, i64, i64, i64, i32, ptr, i64, i64, i32, i32, i32, i32, i64, i64, ptr, i64, i64, i64, i64, i64, i64, i64, i64, [41 x i8], i32, ptr, i32, i32, i64, %struct.multiState, %struct.blockingState, i64, ptr, ptr, ptr, ptr, ptr, ptr, ptr, ptr, ptr, ptr, ptr, ptr, ptr, ptr, i64, ptr, i64, i32, ptr, ptr, ptr, i64, %struct.listNode, i64, i64, i32, i64, ptr }
%struct.multiState = type { ptr, i32, i32, i32, i64, i32 }
%struct.blockingState = type { i32, i64, i32, ptr, i32, i32, i64, ptr, ptr, i64 }
%struct.listNode = type { ptr, ptr, ptr }
%struct.list = type { ptr, ptr, ptr, ptr, ptr, i64 }

@ldb = dso_local global %struct.ldbState zeroinitializer, align 8

; Function Attrs: nounwind uwtable
define dso_local void @ldbFlushLog(ptr noundef %0) #0 {
  %2 = alloca ptr, align 8
  %3 = alloca ptr, align 8
  store ptr %0, ptr %2, align 8, !tbaa !81
  call void @llvm.lifetime.start.p0(i64 8, ptr %3) #14
  br label %4

4:                                                ; preds = %9, %1
  %5 = load ptr, ptr %2, align 8, !tbaa !81
  %6 = getelementptr inbounds nuw %struct.list, ptr %5, i32 0, i32 0
  %7 = load ptr, ptr %6, align 8, !tbaa !137
  store ptr %7, ptr %3, align 8, !tbaa !138
  %8 = icmp ne ptr %7, null
  br i1 %8, label %9, label %12

9:                                                ; preds = %4
  %10 = load ptr, ptr %2, align 8, !tbaa !81
  %11 = load ptr, ptr %3, align 8, !tbaa !138
  call void @listDelNode(ptr noundef %10, ptr noundef %11)
  br label %4, !llvm.loop !156

12:                                               ; preds = %4
  call void @llvm.lifetime.end.p0(i64 8, ptr %3) #14
  ret void
}

; Function Attrs: nounwind uwtable
define dso_local void @ldbEnable(ptr noundef %0) #0 {
  %2 = alloca ptr, align 8
  store ptr %0, ptr %2, align 8, !tbaa !110
  %3 = load ptr, ptr %2, align 8, !tbaa !110
  %4 = getelementptr inbounds nuw %struct.client, ptr %3, i32 0, i32 1
  %5 = load i64, ptr %4, align 8, !tbaa !64
  %6 = or i64 %5, 33554432
  store i64 %6, ptr %4, align 8, !tbaa !64
  %7 = load ptr, ptr getelementptr inbounds nuw (%struct.ldbState, ptr @ldb, i32 0, i32 3), align 8, !tbaa !34
  call void @ldbFlushLog(ptr noundef %7)
  %8 = load ptr, ptr %2, align 8, !tbaa !110
  %9 = getelementptr inbounds nuw %struct.client, ptr %8, i32 0, i32 2
  %10 = load ptr, ptr %9, align 8, !tbaa !151
  store ptr %10, ptr @ldb, align 8, !tbaa !74
  store i32 1, ptr getelementptr inbounds nuw (%struct.ldbState, ptr @ldb, i32 0, i32 8), align 4, !tbaa !152
  store i32 0, ptr getelementptr inbounds nuw (%struct.ldbState, ptr @ldb, i32 0, i32 7), align 8, !tbaa !153
  store i32 0, ptr getelementptr inbounds nuw (%struct.ldbState, ptr @ldb, i32 0, i32 9), align 8, !tbaa !31
  %11 = load ptr, ptr getelementptr inbounds nuw (%struct.ldbState, ptr @ldb, i32 0, i32 13), align 8, !tbaa !80
  call void @sdsfree(ptr noundef %11)
  %12 = call ptr @sdsempty()
  store ptr %12, ptr getelementptr inbounds nuw (%struct.ldbState, ptr @ldb, i32 0, i32 13), align 8, !tbaa !80
  store i64 256, ptr getelementptr inbounds nuw (%struct.ldbState, ptr @ldb, i32 0, i32 14), align 8, !tbaa !154
  store i32 0, ptr getelementptr inbounds nuw (%struct.ldbState, ptr @ldb, i32 0, i32 15), align 8, !tbaa !155
  ret void
}