; Function Attrs: nounwind uwtable
define dso_local void @ldbEnable(ptr noundef captures(none) %0) local_unnamed_addr #0 {
  %2 = getelementptr inbounds nuw i8, ptr %0, i64 8
  %3 = load i64, ptr %2, align 8, !tbaa !65
  %4 = or i64 %3, 33554432
  store i64 %4, ptr %2, align 8, !tbaa !65
  %5 = load ptr, ptr getelementptr inbounds nuw (i8, ptr @ldb, i64 16), align 8, !tbaa !26
  %6 = load ptr, ptr %5, align 8, !tbaa !124
  %.not3.i = icmp eq ptr %6, null
  br i1 %.not3.i, label %ldbFlushLog.exit, label %.lr.ph.i

.lr.ph.i:                                         ; preds = %1, %.lr.ph.i
  %7 = phi ptr [ %8, %.lr.ph.i ], [ %6, %1 ]
  tail call void @listDelNode(ptr noundef nonnull %5, ptr noundef nonnull %7) #19
  %8 = load ptr, ptr %5, align 8, !tbaa !124
  %.not.i = icmp eq ptr %8, null
  br i1 %.not.i, label %ldbFlushLog.exit, label %.lr.ph.i, !llvm.loop !137

ldbFlushLog.exit:                                 ; preds = %.lr.ph.i, %1
  %9 = getelementptr inbounds nuw i8, ptr %0, i64 16
  %10 = load ptr, ptr %9, align 8, !tbaa !138
  store ptr %10, ptr @ldb, align 8, !tbaa !54
  store i32 1, ptr getelementptr inbounds nuw (i8, ptr @ldb, i64 300), align 4, !tbaa !139
  store i32 0, ptr getelementptr inbounds nuw (i8, ptr @ldb, i64 296), align 8, !tbaa !140
  store i32 0, ptr getelementptr inbounds nuw (i8, ptr @ldb, i64 304), align 8, !tbaa !23
  %11 = load ptr, ptr getelementptr inbounds nuw (i8, ptr @ldb, i64 328), align 8, !tbaa !60
  tail call void @sdsfree(ptr noundef %11) #19
  %12 = tail call ptr @sdsempty() #19
  store ptr %12, ptr getelementptr inbounds nuw (i8, ptr @ldb, i64 328), align 8, !tbaa !60
  store i64 256, ptr getelementptr inbounds nuw (i8, ptr @ldb, i64 336), align 8, !tbaa !141
  store i32 0, ptr getelementptr inbounds nuw (i8, ptr @ldb, i64 344), align 8, !tbaa !142
  ret void
}